; ModuleID = '25/950.cpp'
source_filename = "25/950.cpp"
target datalayout = "e-m:e-p270:32:32-p271:32:32-p272:64:64-i64:64-f80:128-n8:16:32:64-S128"
target triple = "x86_64-pc-linux-gnu"

%"class.std::ios_base::Init" = type { i8 }
%"class.std::basic_ostream" = type { i32 (...)**, %"class.std::basic_ios" }
%"class.std::basic_ios" = type { %"class.std::ios_base", %"class.std::basic_ostream"*, i8, i8, %"class.std::basic_streambuf"*, %"class.std::ctype"*, %"class.std::num_put"*, %"class.std::num_get"* }
%"class.std::ios_base" = type { i32 (...)**, i64, i64, i32, i32, i32, %"struct.std::ios_base::_Callback_list"*, %"struct.std::ios_base::_Words", [8 x %"struct.std::ios_base::_Words"], i32, %"struct.std::ios_base::_Words"*, %"class.std::locale" }
%"struct.std::ios_base::_Callback_list" = type { %"struct.std::ios_base::_Callback_list"*, void (i32, %"class.std::ios_base"*, i32)*, i32, i32 }
%"struct.std::ios_base::_Words" = type { i8*, i64 }
%"class.std::locale" = type { %"class.std::locale::_Impl"* }
%"class.std::locale::_Impl" = type { i32, %"class.std::locale::facet"**, i64, %"class.std::locale::facet"**, i8** }
%"class.std::locale::facet" = type <{ i32 (...)**, i32, [4 x i8] }>
%"class.std::basic_streambuf" = type { i32 (...)**, i8*, i8*, i8*, i8*, i8*, i8*, %"class.std::locale" }
%"class.std::ctype" = type <{ %"class.std::locale::facet.base", [4 x i8], %struct.__locale_struct*, i8, [7 x i8], i32*, i32*, i16*, i8, [256 x i8], [256 x i8], i8, [6 x i8] }>
%"class.std::locale::facet.base" = type <{ i32 (...)**, i32 }>
%struct.__locale_struct = type { [13 x %struct.__locale_data*], i16*, i32*, i32*, [13 x i8*] }
%struct.__locale_data = type opaque
%"class.std::num_put" = type { %"class.std::locale::facet.base", [4 x i8] }
%"class.std::num_get" = type { %"class.std::locale::facet.base", [4 x i8] }
%"class.std::basic_istream" = type { i32 (...)**, i64, %"class.std::basic_ios" }

@_ZStL8__ioinit = internal global %"class.std::ios_base::Init" zeroinitializer, align 1
@__dso_handle = external hidden global i8
@a = dso_local global <{ i32, [39 x i32] }> <{ i32 2, [39 x i32] zeroinitializer }>, align 16
@b = dso_local global <{ i32, [39 x i32] }> <{ i32 2, [39 x i32] zeroinitializer }>, align 16
@n = dso_local global i32 0, align 4
@_ZSt4cout = external dso_local global %"class.std::basic_ostream", align 8
@_ZSt3cin = external dso_local global %"class.std::basic_istream", align 8
@llvm.global_ctors = appending global [1 x { i32, void ()*, i8* }] [{ i32, void ()*, i8* } { i32 65535, void ()* @_GLOBAL__sub_I_950.cpp, i8* null }]

; Function Attrs: noinline uwtable
define internal void @__cxx_global_var_init() #0 section ".text.startup" {
  call void @_ZNSt8ios_base4InitC1Ev(%"class.std::ios_base::Init"* @_ZStL8__ioinit)
  %1 = call i32 @__cxa_atexit(void (i8*)* bitcast (void (%"class.std::ios_base::Init"*)* @_ZNSt8ios_base4InitD1Ev to void (i8*)*), i8* getelementptr inbounds (%"class.std::ios_base::Init", %"class.std::ios_base::Init"* @_ZStL8__ioinit, i32 0, i32 0), i8* @__dso_handle) #3
  ret void
}

declare dso_local void @_ZNSt8ios_base4InitC1Ev(%"class.std::ios_base::Init"*) unnamed_addr #1

; Function Attrs: nounwind
declare dso_local void @_ZNSt8ios_base4InitD1Ev(%"class.std::ios_base::Init"*) unnamed_addr #2

; Function Attrs: nounwind
declare dso_local i32 @__cxa_atexit(void (i8*)*, i8*, i8*) #3

; Function Attrs: noinline uwtable
define dso_local void @_Z3sumii(i32 %0, i32 %1) #0 {
  %3 = alloca i32, align 4
  %4 = alloca i32, align 4
  %5 = alloca i32, align 4
  %6 = alloca i32, align 4
  store i32 %0, i32* %3, align 4
  store i32 %1, i32* %4, align 4
  %7 = load i32, i32* %3, align 4
  %8 = load i32, i32* @n, align 4
  %9 = icmp eq i32 %7, %8
  br i1 %9, label %10, label %27

10:                                               ; preds = %2
  %11 = load i32, i32* %4, align 4
  %12 = sub nsw i32 %11, 1
  store i32 %12, i32* %5, align 4
  br label %13

13:                                               ; preds = %22, %10
  %14 = load i32, i32* %5, align 4
  %15 = icmp sge i32 %14, 0
  br i1 %15, label %16, label %25

16:                                               ; preds = %13
  %17 = load i32, i32* %5, align 4
  %18 = sext i32 %17 to i64
  %19 = getelementptr inbounds [40 x i32], [40 x i32]* bitcast (<{ i32, [39 x i32] }>* @a to [40 x i32]*), i64 0, i64 %18
  %20 = load i32, i32* %19, align 4
  %21 = call dereferenceable(272) %"class.std::basic_ostream"* @_ZNSolsEi(%"class.std::basic_ostream"* @_ZSt4cout, i32 %20)
  br label %22

22:                                               ; preds = %16
  %23 = load i32, i32* %5, align 4
  %24 = add nsw i32 %23, -1
  store i32 %24, i32* %5, align 4
  br label %13

25:                                               ; preds = %13
  %26 = call dereferenceable(272) %"class.std::basic_ostream"* @_ZNSolsEPFRSoS_E(%"class.std::basic_ostream"* @_ZSt4cout, %"class.std::basic_ostream"* (%"class.std::basic_ostream"*)* @_ZSt4endlIcSt11char_traitsIcEERSt13basic_ostreamIT_T0_ES6_)
  br label %96

27:                                               ; preds = %2
  %28 = load i32, i32* %4, align 4
  %29 = sub nsw i32 %28, 1
  %30 = sext i32 %29 to i64
  %31 = getelementptr inbounds [40 x i32], [40 x i32]* bitcast (<{ i32, [39 x i32] }>* @a to [40 x i32]*), i64 0, i64 %30
  %32 = load i32, i32* %31, align 4
  %33 = load i32, i32* %4, align 4
  %34 = sub nsw i32 %33, 1
  %35 = sext i32 %34 to i64
  %36 = getelementptr inbounds [40 x i32], [40 x i32]* bitcast (<{ i32, [39 x i32] }>* @b to [40 x i32]*), i64 0, i64 %35
  %37 = load i32, i32* %36, align 4
  %38 = add nsw i32 %32, %37
  %39 = icmp sge i32 %38, 10
  br i1 %39, label %40, label %43

40:                                               ; preds = %27
  %41 = load i32, i32* %4, align 4
  %42 = add nsw i32 %41, 1
  store i32 %42, i32* %4, align 4
  br label %43

43:                                               ; preds = %40, %27
  store i32 0, i32* %6, align 4
  br label %44

44:                                               ; preds = %89, %43
  %45 = load i32, i32* %6, align 4
  %46 = load i32, i32* %4, align 4
  %47 = icmp slt i32 %45, %46
  br i1 %47, label %48, label %92

48:                                               ; preds = %44
  %49 = load i32, i32* %6, align 4
  %50 = sext i32 %49 to i64
  %51 = getelementptr inbounds [40 x i32], [40 x i32]* bitcast (<{ i32, [39 x i32] }>* @a to [40 x i32]*), i64 0, i64 %50
  %52 = load i32, i32* %51, align 4
  %53 = load i32, i32* %6, align 4
  %54 = sext i32 %53 to i64
  %55 = getelementptr inbounds [40 x i32], [40 x i32]* bitcast (<{ i32, [39 x i32] }>* @b to [40 x i32]*), i64 0, i64 %54
  %56 = load i32, i32* %55, align 4
  %57 = add nsw i32 %52, %56
  %58 = srem i32 %57, 10
  %59 = load i32, i32* %6, align 4
  %60 = sext i32 %59 to i64
  %61 = getelementptr inbounds [40 x i32], [40 x i32]* bitcast (<{ i32, [39 x i32] }>* @a to [40 x i32]*), i64 0, i64 %60
  store i32 %58, i32* %61, align 4
  %62 = load i32, i32* %6, align 4
  %63 = sext i32 %62 to i64
  %64 = getelementptr inbounds [40 x i32], [40 x i32]* bitcast (<{ i32, [39 x i32] }>* @b to [40 x i32]*), i64 0, i64 %63
  %65 = load i32, i32* %64, align 4
  %66 = load i32, i32* %6, align 4
  %67 = sext i32 %66 to i64
  %68 = getelementptr inbounds [40 x i32], [40 x i32]* bitcast (<{ i32, [39 x i32] }>* @b to [40 x i32]*), i64 0, i64 %67
  %69 = load i32, i32* %68, align 4
  %70 = add nsw i32 %65, %69
  %71 = sdiv i32 %70, 10
  %72 = load i32, i32* %6, align 4
  %73 = add nsw i32 %72, 1
  %74 = sext i32 %73 to i64
  %75 = getelementptr inbounds [40 x i32], [40 x i32]* bitcast (<{ i32, [39 x i32] }>* @a to [40 x i32]*), i64 0, i64 %74
  %76 = load i32, i32* %75, align 4
  %77 = add nsw i32 %71, %76
  %78 = load i32, i32* %6, align 4
  %79 = add nsw i32 %78, 1
  %80 = sext i32 %79 to i64
  %81 = getelementptr inbounds [40 x i32], [40 x i32]* bitcast (<{ i32, [39 x i32] }>* @a to [40 x i32]*), i64 0, i64 %80
  store i32 %77, i32* %81, align 4
  %82 = load i32, i32* %6, align 4
  %83 = sext i32 %82 to i64
  %84 = getelementptr inbounds [40 x i32], [40 x i32]* bitcast (<{ i32, [39 x i32] }>* @a to [40 x i32]*), i64 0, i64 %83
  %85 = load i32, i32* %84, align 4
  %86 = load i32, i32* %6, align 4
  %87 = sext i32 %86 to i64
  %88 = getelementptr inbounds [40 x i32], [40 x i32]* bitcast (<{ i32, [39 x i32] }>* @b to [40 x i32]*), i64 0, i64 %87
  store i32 %85, i32* %88, align 4
  br label %89

89:                                               ; preds = %48
  %90 = load i32, i32* %6, align 4
  %91 = add nsw i32 %90, 1
  store i32 %91, i32* %6, align 4
  br label %44

92:                                               ; preds = %44
  %93 = load i32, i32* %3, align 4
  %94 = add nsw i32 %93, 1
  %95 = load i32, i32* %4, align 4
  call void @_Z3sumii(i32 %94, i32 %95)
  br label %96

96:                                               ; preds = %92, %25
  ret void
}

declare dso_local dereferenceable(272) %"class.std::basic_ostream"* @_ZNSolsEi(%"class.std::basic_ostream"*, i32) #1

declare dso_local dereferenceable(272) %"class.std::basic_ostream"* @_ZNSolsEPFRSoS_E(%"class.std::basic_ostream"*, %"class.std::basic_ostream"* (%"class.std::basic_ostream"*)*) #1

declare dso_local dereferenceable(272) %"class.std::basic_ostream"* @_ZSt4endlIcSt11char_traitsIcEERSt13basic_ostreamIT_T0_ES6_(%"class.std::basic_ostream"* dereferenceable(272)) #1

; Function Attrs: noinline norecurse uwtable
define dso_local i32 @main() #4 {
  %1 = alloca i32, align 4
  %2 = alloca i32, align 4
  store i32 0, i32* %1, align 4
  %3 = call dereferenceable(280) %"class.std::basic_istream"* @_ZNSirsERi(%"class.std::basic_istream"* @_ZSt3cin, i32* dereferenceable(4) @n)
  %4 = load i32, i32* @n, align 4
  %5 = icmp eq i32 %4, 0
  br i1 %5, label %6, label %9

6:                                                ; preds = %0
  %7 = call dereferenceable(272) %"class.std::basic_ostream"* @_ZNSolsEi(%"class.std::basic_ostream"* @_ZSt4cout, i32 1)
  %8 = call dereferenceable(272) %"class.std::basic_ostream"* @_ZNSolsEPFRSoS_E(%"class.std::basic_ostream"* %7, %"class.std::basic_ostream"* (%"class.std::basic_ostream"*)* @_ZSt4endlIcSt11char_traitsIcEERSt13basic_ostreamIT_T0_ES6_)
  store i32 0, i32* %1, align 4
  br label %24

9:                                                ; preds = %0
  store i32 1, i32* %2, align 4
  br label %10

10:                                               ; preds = %20, %9
  %11 = load i32, i32* %2, align 4
  %12 = icmp slt i32 %11, 40
  br i1 %12, label %13, label %23

13:                                               ; preds = %10
  %14 = load i32, i32* %2, align 4
  %15 = sext i32 %14 to i64
  %16 = getelementptr inbounds [40 x i32], [40 x i32]* bitcast (<{ i32, [39 x i32] }>* @a to [40 x i32]*), i64 0, i64 %15
  store i32 0, i32* %16, align 4
  %17 = load i32, i32* %2, align 4
  %18 = sext i32 %17 to i64
  %19 = getelementptr inbounds [40 x i32], [40 x i32]* bitcast (<{ i32, [39 x i32] }>* @b to [40 x i32]*), i64 0, i64 %18
  store i32 0, i32* %19, align 4
  br label %20

20:                                               ; preds = %13
  %21 = load i32, i32* %2, align 4
  %22 = add nsw i32 %21, 1
  store i32 %22, i32* %2, align 4
  br label %10

23:                                               ; preds = %10
  call void @_Z3sumii(i32 1, i32 1)
  store i32 0, i32* %1, align 4
  br label %24

24:                                               ; preds = %23, %6
  %25 = load i32, i32* %1, align 4
  ret i32 %25
}

declare dso_local dereferenceable(280) %"class.std::basic_istream"* @_ZNSirsERi(%"class.std::basic_istream"*, i32* dereferenceable(4)) #1

; Function Attrs: noinline uwtable
define internal void @_GLOBAL__sub_I_950.cpp() #0 section ".text.startup" {
  call void @__cxx_global_var_init()
  ret void
}


!llvm.module.flags = !{!0}
!llvm.ident = !{!1}

!0 = !{i32 1, !"wchar_size", i32 4}
!1 = !{!"clang version 10.0.0-4ubuntu1 "}
